; ModuleID = '31/70.c'
source_filename = "31/70.c"
target datalayout = "e-m:e-p270:32:32-p271:32:32-p272:64:64-i64:64-f80:128-n8:16:32:64-S128"
target triple = "x86_64-pc-linux-gnu"

%struct.student = type { [100 x i8], %struct.student*, %struct.student* }

@n = common dso_local global i32 0, align 4
@.str = private unnamed_addr constant [4 x i8] c"end\00", align 1
@.str.1 = private unnamed_addr constant [2 x i8] c"\0A\00", align 1
@i = common dso_local global i32 0, align 4
@j = common dso_local global i32 0, align 4
@k = common dso_local global i32 0, align 4

; Function Attrs: noinline nounwind uwtable
define dso_local void @main() #0 {
  %1 = alloca %struct.student*, align 8
  %2 = alloca %struct.student*, align 8
  %3 = alloca %struct.student*, align 8
  store i32 0, i32* @n, align 4
  %4 = call noalias i8* @malloc(i64 100) #4
  %5 = bitcast i8* %4 to %struct.student*
  store %struct.student* %5, %struct.student** %3, align 8
  store %struct.student* %5, %struct.student** %2, align 8
  %6 = load %struct.student*, %struct.student** %2, align 8
  %7 = getelementptr inbounds %struct.student, %struct.student* %6, i32 0, i32 0
  %8 = getelementptr inbounds [100 x i8], [100 x i8]* %7, i64 0, i64 0
  %9 = call i32 (i8*, ...) bitcast (i32 (...)* @gets to i32 (i8*, ...)*)(i8* %8)
  store %struct.student* null, %struct.student** %1, align 8
  br label %10

10:                                               ; preds = %32, %0
  %11 = load %struct.student*, %struct.student** %2, align 8
  %12 = getelementptr inbounds %struct.student, %struct.student* %11, i32 0, i32 0
  %13 = getelementptr inbounds [100 x i8], [100 x i8]* %12, i64 0, i64 0
  %14 = call i32 @strcmp(i8* %13, i8* getelementptr inbounds ([4 x i8], [4 x i8]* @.str, i64 0, i64 0)) #5
  %15 = icmp ne i32 %14, 0
  br i1 %15, label %16, label %40

16:                                               ; preds = %10
  %17 = load i32, i32* @n, align 4
  %18 = add nsw i32 %17, 1
  store i32 %18, i32* @n, align 4
  %19 = load i32, i32* @n, align 4
  %20 = icmp eq i32 %19, 1
  br i1 %20, label %21, label %25

21:                                               ; preds = %16
  %22 = load %struct.student*, %struct.student** %2, align 8
  store %struct.student* %22, %struct.student** %1, align 8
  %23 = load %struct.student*, %struct.student** %2, align 8
  %24 = getelementptr inbounds %struct.student, %struct.student* %23, i32 0, i32 2
  store %struct.student* null, %struct.student** %24, align 8
  br label %32

25:                                               ; preds = %16
  %26 = load %struct.student*, %struct.student** %2, align 8
  %27 = load %struct.student*, %struct.student** %3, align 8
  %28 = getelementptr inbounds %struct.student, %struct.student* %27, i32 0, i32 1
  store %struct.student* %26, %struct.student** %28, align 8
  %29 = load %struct.student*, %struct.student** %3, align 8
  %30 = load %struct.student*, %struct.student** %2, align 8
  %31 = getelementptr inbounds %struct.student, %struct.student* %30, i32 0, i32 2
  store %struct.student* %29, %struct.student** %31, align 8
  br label %32

32:                                               ; preds = %25, %21
  %33 = load %struct.student*, %struct.student** %2, align 8
  store %struct.student* %33, %struct.student** %3, align 8
  %34 = call noalias i8* @malloc(i64 100) #4
  %35 = bitcast i8* %34 to %struct.student*
  store %struct.student* %35, %struct.student** %2, align 8
  %36 = load %struct.student*, %struct.student** %2, align 8
  %37 = getelementptr inbounds %struct.student, %struct.student* %36, i32 0, i32 0
  %38 = getelementptr inbounds [100 x i8], [100 x i8]* %37, i64 0, i64 0
  %39 = call i32 (i8*, ...) bitcast (i32 (...)* @gets to i32 (i8*, ...)*)(i8* %38)
  br label %10

40:                                               ; preds = %10
  %41 = load %struct.student*, %struct.student** %3, align 8
  %42 = getelementptr inbounds %struct.student, %struct.student* %41, i32 0, i32 1
  store %struct.student* null, %struct.student** %42, align 8
  %43 = load %struct.student*, %struct.student** %3, align 8
  store %struct.student* %43, %struct.student** %2, align 8
  br label %44

44:                                               ; preds = %53, %40
  %45 = load %struct.student*, %struct.student** %3, align 8
  %46 = getelementptr inbounds %struct.student, %struct.student* %45, i32 0, i32 0
  %47 = getelementptr inbounds [100 x i8], [100 x i8]* %46, i64 0, i64 0
  %48 = call i32 @puts(i8* %47)
  %49 = call i32 (i8*, ...) @printf(i8* getelementptr inbounds ([2 x i8], [2 x i8]* @.str.1, i64 0, i64 0))
  %50 = load %struct.student*, %struct.student** %3, align 8
  %51 = getelementptr inbounds %struct.student, %struct.student* %50, i32 0, i32 2
  %52 = load %struct.student*, %struct.student** %51, align 8
  store %struct.student* %52, %struct.student** %3, align 8
  br label %53

53:                                               ; preds = %44
  %54 = load %struct.student*, %struct.student** %3, align 8
  %55 = icmp ne %struct.student* %54, null
  br i1 %55, label %44, label %56

56:                                               ; preds = %53
  ret void
}

; Function Attrs: nounwind
declare dso_local noalias i8* @malloc(i64) #1

declare dso_local i32 @gets(...) #2

; Function Attrs: nounwind readonly
declare dso_local i32 @strcmp(i8*, i8*) #3

declare dso_local i32 @puts(i8*) #2

declare dso_local i32 @printf(i8*, ...) #2


!llvm.module.flags = !{!0}
!llvm.ident = !{!1}

!0 = !{i32 1, !"wchar_size", i32 4}
!1 = !{!"clang version 10.0.0-4ubuntu1 "}
