; ModuleID = 'source-C-CXX/30/70.c'
source_filename = "source-C-CXX/30/70.c"
target datalayout = "e-m:e-p270:32:32-p271:32:32-p272:64:64-i64:64-f80:128-n8:16:32:64-S128"
target triple = "x86_64-pc-linux-gnu"

%struct.student = type { [100 x i8], %struct.student*, %struct.student* }

@n = dso_local local_unnamed_addr global i32 0, align 4
@.str = private unnamed_addr constant [4 x i8] c"end\00", align 1
@i = dso_local local_unnamed_addr global i32 0, align 4
@j = dso_local local_unnamed_addr global i32 0, align 4
@k = dso_local local_unnamed_addr global i32 0, align 4

; Function Attrs: nounwind sspstrong uwtable
define dso_local void @main() local_unnamed_addr #0 {
  store i32 0, i32* @n, align 4, !tbaa !5
  %1 = tail call noalias align 16 dereferenceable_or_null(100) i8* @malloc(i64 100) #6
  %2 = bitcast i8* %1 to %struct.student*
  %3 = getelementptr inbounds %struct.student, %struct.student* %2, i64 0, i32 0, i64 0
  %4 = tail call i32 (i8*, ...) bitcast (i32 (...)* @gets to i32 (i8*, ...)*)(i8* %3) #6
  %5 = tail call i32 @strcmp(i8* noundef nonnull dereferenceable(1) %3, i8* noundef nonnull dereferenceable(4) getelementptr inbounds ([4 x i8], [4 x i8]* @.str, i64 0, i64 0)) #7
  %6 = icmp eq i32 %5, 0
  br i1 %6, label %24, label %7

7:                                                ; preds = %0, %15
  %8 = phi %struct.student* [ %9, %15 ], [ %2, %0 ]
  %9 = phi %struct.student* [ %19, %15 ], [ %2, %0 ]
  %10 = load i32, i32* @n, align 4, !tbaa !5
  %11 = add nsw i32 %10, 1
  store i32 %11, i32* @n, align 4, !tbaa !5
  %12 = icmp eq i32 %10, 0
  br i1 %12, label %15, label %13

13:                                               ; preds = %7
  %14 = getelementptr inbounds %struct.student, %struct.student* %8, i64 0, i32 1
  store %struct.student* %9, %struct.student** %14, align 8, !tbaa !9
  br label %15

15:                                               ; preds = %7, %13
  %16 = phi %struct.student* [ %8, %13 ], [ null, %7 ]
  %17 = getelementptr inbounds %struct.student, %struct.student* %9, i64 0, i32 2
  store %struct.student* %16, %struct.student** %17, align 8
  %18 = tail call noalias align 16 dereferenceable_or_null(100) i8* @malloc(i64 100) #6
  %19 = bitcast i8* %18 to %struct.student*
  %20 = getelementptr inbounds %struct.student, %struct.student* %19, i64 0, i32 0, i64 0
  %21 = tail call i32 (i8*, ...) bitcast (i32 (...)* @gets to i32 (i8*, ...)*)(i8* %20) #6
  %22 = tail call i32 @strcmp(i8* noundef nonnull dereferenceable(1) %20, i8* noundef nonnull dereferenceable(4) getelementptr inbounds ([4 x i8], [4 x i8]* @.str, i64 0, i64 0)) #7
  %23 = icmp eq i32 %22, 0
  br i1 %23, label %24, label %7, !llvm.loop !12

24:                                               ; preds = %15, %0
  %25 = phi %struct.student* [ %2, %0 ], [ %9, %15 ]
  %26 = getelementptr inbounds %struct.student, %struct.student* %25, i64 0, i32 1
  store %struct.student* null, %struct.student** %26, align 8, !tbaa !9
  br label %27

27:                                               ; preds = %27, %24
  %28 = phi %struct.student* [ %25, %24 ], [ %33, %27 ]
  %29 = getelementptr inbounds %struct.student, %struct.student* %28, i64 0, i32 0, i64 0
  %30 = tail call i32 @puts(i8* nonnull dereferenceable(1) %29)
  %31 = tail call i32 @putchar(i32 10)
  %32 = getelementptr inbounds %struct.student, %struct.student* %28, i64 0, i32 2
  %33 = load %struct.student*, %struct.student** %32, align 8, !tbaa !14
  %34 = icmp eq %struct.student* %33, null
  br i1 %34, label %35, label %27, !llvm.loop !15

35:                                               ; preds = %27
  ret void
}

; Function Attrs: inaccessiblememonly mustprogress nofree nounwind willreturn
declare noalias noundef align 16 i8* @malloc(i64 noundef) local_unnamed_addr #1

declare i32 @gets(...) local_unnamed_addr #2

; Function Attrs: argmemonly mustprogress nofree nounwind readonly willreturn
declare i32 @strcmp(i8* nocapture, i8* nocapture) local_unnamed_addr #3

; Function Attrs: nofree nounwind
declare noundef i32 @puts(i8* nocapture noundef readonly) local_unnamed_addr #4

; Function Attrs: nofree nounwind
declare noundef i32 @putchar(i32 noundef) local_unnamed_addr #5


!llvm.module.flags = !{!0, !1, !2, !3}
!llvm.ident = !{!4}

!0 = !{i32 1, !"wchar_size", i32 4}
!1 = !{i32 7, !"PIC Level", i32 2}
!2 = !{i32 7, !"PIE Level", i32 2}
!3 = !{i32 7, !"uwtable", i32 1}
!4 = !{!"clang version 13.0.0"}
!5 = !{!6, !6, i64 0}
!6 = !{!"int", !7, i64 0}
!7 = !{!"omnipotent char", !8, i64 0}
!8 = !{!"Simple C/C++ TBAA"}
!9 = !{!10, !11, i64 104}
!10 = !{!"student", !7, i64 0, !11, i64 104, !11, i64 112}
!11 = !{!"any pointer", !7, i64 0}
!12 = distinct !{!12, !13}
!13 = !{!"llvm.loop.mustprogress"}
!14 = !{!10, !11, i64 112}
!15 = distinct !{!15, !13}
